target datalayout = "e-m:e-p270:32:32-p271:32:32-p272:64:64-i64:64-i128:128-f80:128-n8:16:32:64-S128"
target triple = "x86_64-pc-linux-gnu"

%"class.folly::exception_shared_string" = type { i64 }
%"struct.folly::exception_shared_string::state" = type { %"struct.std::atomic.1", i64 }
%"struct.std::atomic.1" = type { %"struct.std::__atomic_base.2" }
%"struct.std::__atomic_base.2" = type { i64 }

; Function Attrs: alwaysinline mustprogress nounwind uwtable
define linkonce_odr noundef i64 @_ZNSt13__atomic_baseImE9fetch_addEmSt12memory_order(ptr noundef nonnull align 8 dereferenceable(8) %0, i64 noundef %1, i32 noundef %2) #4 comdat align 2 {
  %4 = alloca ptr, align 8
  %5 = alloca i64, align 8
  %6 = alloca i32, align 4
  %7 = alloca i64, align 8
  %8 = alloca i64, align 8
  store ptr %0, ptr %4, align 8, !tbaa !106
  store i64 %1, ptr %5, align 8, !tbaa !46
  store i32 %2, ptr %6, align 4, !tbaa !20
  %9 = load ptr, ptr %4, align 8
  %10 = getelementptr inbounds nuw %"struct.std::__atomic_base.2", ptr %9, i32 0, i32 0
  %11 = load i32, ptr %6, align 4, !tbaa !20
  %12 = load i64, ptr %5, align 8, !tbaa !46
  store i64 %12, ptr %7, align 8, !tbaa !46
  switch i32 %11, label %13 [
    i32 1, label %16
    i32 2, label %16
    i32 3, label %19
    i32 4, label %22
    i32 5, label %25
  ]

13:                                               ; preds = %3
  %14 = load i64, ptr %7, align 8
  %15 = atomicrmw add ptr %10, i64 %14 monotonic, align 8
  store i64 %15, ptr %8, align 8
  br label %28

16:                                               ; preds = %3, %3
  %17 = load i64, ptr %7, align 8
  %18 = atomicrmw add ptr %10, i64 %17 acquire, align 8
  store i64 %18, ptr %8, align 8
  br label %28

19:                                               ; preds = %3
  %20 = load i64, ptr %7, align 8
  %21 = atomicrmw add ptr %10, i64 %20 release, align 8
  store i64 %21, ptr %8, align 8
  br label %28

22:                                               ; preds = %3
  %23 = load i64, ptr %7, align 8
  %24 = atomicrmw add ptr %10, i64 %23 acq_rel, align 8
  store i64 %24, ptr %8, align 8
  br label %28

25:                                               ; preds = %3
  %26 = load i64, ptr %7, align 8
  %27 = atomicrmw add ptr %10, i64 %26 seq_cst, align 8
  store i64 %27, ptr %8, align 8
  br label %28

28:                                               ; preds = %25, %22, %19, %16, %13
  %29 = load i64, ptr %8, align 8, !tbaa !46
  ret i64 %29
}

; Function Attrs: mustprogress nounwind uwtable
define linkonce_odr void @_ZN5folly23exception_shared_string5state4copyEv(ptr noundef nonnull align 8 dereferenceable(16) %0) #0 comdat align 2 {
  %2 = alloca ptr, align 8
  store ptr %0, ptr %2, align 8, !tbaa !92
  %3 = load ptr, ptr %2, align 8
  %4 = getelementptr inbounds nuw %"struct.folly::exception_shared_string::state", ptr %3, i32 0, i32 0
  %5 = call noundef i64 @_ZNSt13__atomic_baseImE9fetch_addEmSt12memory_order(ptr noundef nonnull align 8 dereferenceable(8) %4, i64 noundef 1, i32 noundef 0) #20
  ret void
}

; Function Attrs: mustprogress nounwind uwtable
define void @_ZN5folly23exception_shared_stringC2ERKS0_(ptr noundef nonnull align 8 dereferenceable(8) %0, ptr noundef nonnull align 8 dereferenceable(8) %1) unnamed_addr #0 align 2 {
  %3 = alloca ptr, align 8
  %4 = alloca ptr, align 8
  store ptr %0, ptr %3, align 8, !tbaa !84
  store ptr %1, ptr %4, align 8, !tbaa !84
  %5 = load ptr, ptr %3, align 8
  %6 = getelementptr inbounds nuw %"class.folly::exception_shared_string", ptr %5, i32 0, i32 0
  %7 = load ptr, ptr %4, align 8, !tbaa !84
  %8 = getelementptr inbounds nuw %"class.folly::exception_shared_string", ptr %7, i32 0, i32 0
  %9 = load i64, ptr %8, align 8, !tbaa !86
  %10 = and i64 %9, 1
  %11 = icmp ne i64 %10, 0
  br i1 %11, label %12, label %16

12:                                               ; preds = %2
  %13 = load ptr, ptr %4, align 8, !tbaa !84
  %14 = getelementptr inbounds nuw %"class.folly::exception_shared_string", ptr %13, i32 0, i32 0
  %15 = load i64, ptr %14, align 8, !tbaa !86
  br label %24

16:                                               ; preds = %2
  %17 = load ptr, ptr %4, align 8, !tbaa !84
  %18 = getelementptr inbounds nuw %"class.folly::exception_shared_string", ptr %17, i32 0, i32 0
  %19 = load i64, ptr %18, align 8, !tbaa !86
  %20 = inttoptr i64 %19 to ptr
  call void @_ZN5folly23exception_shared_string5state4copyEv(ptr noundef nonnull align 8 dereferenceable(16) %20) #20
  %21 = load ptr, ptr %4, align 8, !tbaa !84
  %22 = getelementptr inbounds nuw %"class.folly::exception_shared_string", ptr %21, i32 0, i32 0
  %23 = load i64, ptr %22, align 8, !tbaa !86
  br label %24

24:                                               ; preds = %16, %12
  %25 = phi i64 [ %15, %12 ], [ %23, %16 ]
  store i64 %25, ptr %6, align 8, !tbaa !86
  ret void
}