; Function Attrs: mustprogress nofree norecurse nounwind willreturn memory(readwrite, inaccessiblemem: none) uwtable
define void @_ZN5folly23exception_shared_stringC2ERKS0_(ptr noundef nonnull writeonly align 8 captures(none) dereferenceable(8) initializes((0, 8)) %0, ptr noundef nonnull readonly align 8 captures(none) dereferenceable(8) %1) unnamed_addr #17 align 2 {
  %3 = load i64, ptr %1, align 8, !tbaa !49
  %4 = and i64 %3, 1
  %.not = icmp eq i64 %4, 0
  br i1 %.not, label %5, label %9

5:                                                ; preds = %2
  %6 = inttoptr i64 %3 to ptr
  %7 = atomicrmw add ptr %6, i64 1 monotonic, align 8
  %8 = load i64, ptr %1, align 8, !tbaa !49
  br label %9

9:                                                ; preds = %2, %5
  %10 = phi i64 [ %8, %5 ], [ %3, %2 ]
  store i64 %10, ptr %0, align 8, !tbaa !49
  ret void
}